target datalayout = "e-m:e-p270:32:32-p271:32:32-p272:64:64-i64:64-i128:128-f80:128-n8:16:32:64-S128"
target triple = "x86_64-pc-linux-gnu"

%struct.DdNode = type { i32, i32, ptr, %union.anon, i64 }
%union.anon = type { %struct.DdChildren }
%struct.DdChildren = type { ptr, ptr }

; Function Attrs: nounwind uwtable
define ptr @Cudd_Xeqy(ptr noundef %0, i32 noundef %1, ptr noundef %2, ptr noundef %3) #0 {
  %5 = alloca ptr, align 8
  %6 = alloca ptr, align 8
  %7 = alloca i32, align 4
  %8 = alloca ptr, align 8
  %9 = alloca ptr, align 8
  %10 = alloca ptr, align 8
  %11 = alloca ptr, align 8
  %12 = alloca ptr, align 8
  %13 = alloca i32, align 4
  store ptr %0, ptr %6, align 8
  store i32 %1, ptr %7, align 4
  store ptr %2, ptr %8, align 8
  store ptr %3, ptr %9, align 8
  %14 = load ptr, ptr %6, align 8
  %15 = load ptr, ptr %8, align 8
  %16 = load i32, ptr %7, align 4
  %17 = sub nsw i32 %16, 1
  %18 = sext i32 %17 to i64
  %19 = getelementptr inbounds ptr, ptr %15, i64 %18
  %20 = load ptr, ptr %19, align 8
  %21 = load ptr, ptr %9, align 8
  %22 = load i32, ptr %7, align 4
  %23 = sub nsw i32 %22, 1
  %24 = sext i32 %23 to i64
  %25 = getelementptr inbounds ptr, ptr %21, i64 %24
  %26 = load ptr, ptr %25, align 8
  %27 = load ptr, ptr %9, align 8
  %28 = load i32, ptr %7, align 4
  %29 = sub nsw i32 %28, 1
  %30 = sext i32 %29 to i64
  %31 = getelementptr inbounds ptr, ptr %27, i64 %30
  %32 = load ptr, ptr %31, align 8
  %33 = ptrtoint ptr %32 to i64
  %34 = xor i64 %33, 1
  %35 = inttoptr i64 %34 to ptr
  %36 = call ptr @Cudd_bddIte(ptr noundef %14, ptr noundef %20, ptr noundef %26, ptr noundef %35)
  store ptr %36, ptr %10, align 8
  %37 = load ptr, ptr %10, align 8
  %38 = icmp eq ptr %37, null
  br i1 %38, label %39, label %40

39:                                               ; preds = %4
  store ptr null, ptr %5, align 8
  br label %143

40:                                               ; preds = %4
  %41 = load ptr, ptr %10, align 8
  %42 = ptrtoint ptr %41 to i64
  %43 = and i64 %42, -2
  %44 = inttoptr i64 %43 to ptr
  %45 = getelementptr inbounds %struct.DdNode, ptr %44, i32 0, i32 1
  %46 = load i32, ptr %45, align 4
  %47 = add i32 %46, 1
  store i32 %47, ptr %45, align 4
  %48 = load i32, ptr %7, align 4
  %49 = sub nsw i32 %48, 2
  store i32 %49, ptr %13, align 4
  br label %50

50:                                               ; preds = %131, %40
  %51 = load i32, ptr %13, align 4
  %52 = icmp sge i32 %51, 0
  br i1 %52, label %53, label %134

53:                                               ; preds = %50
  %54 = load ptr, ptr %6, align 8
  %55 = load ptr, ptr %9, align 8
  %56 = load i32, ptr %13, align 4
  %57 = sext i32 %56 to i64
  %58 = getelementptr inbounds ptr, ptr %55, i64 %57
  %59 = load ptr, ptr %58, align 8
  %60 = load ptr, ptr %10, align 8
  %61 = call ptr @Cudd_bddAnd(ptr noundef %54, ptr noundef %59, ptr noundef %60)
  store ptr %61, ptr %11, align 8
  %62 = load ptr, ptr %11, align 8
  %63 = icmp eq ptr %62, null
  br i1 %63, label %64, label %67

64:                                               ; preds = %53
  %65 = load ptr, ptr %6, align 8
  %66 = load ptr, ptr %10, align 8
  call void @Cudd_RecursiveDeref(ptr noundef %65, ptr noundef %66)
  store ptr null, ptr %5, align 8
  br label %143

67:                                               ; preds = %53
  %68 = load ptr, ptr %11, align 8
  %69 = ptrtoint ptr %68 to i64
  %70 = and i64 %69, -2
  %71 = inttoptr i64 %70 to ptr
  %72 = getelementptr inbounds %struct.DdNode, ptr %71, i32 0, i32 1
  %73 = load i32, ptr %72, align 4
  %74 = add i32 %73, 1
  store i32 %74, ptr %72, align 4
  %75 = load ptr, ptr %6, align 8
  %76 = load ptr, ptr %9, align 8
  %77 = load i32, ptr %13, align 4
  %78 = sext i32 %77 to i64
  %79 = getelementptr inbounds ptr, ptr %76, i64 %78
  %80 = load ptr, ptr %79, align 8
  %81 = ptrtoint ptr %80 to i64
  %82 = xor i64 %81, 1
  %83 = inttoptr i64 %82 to ptr
  %84 = load ptr, ptr %10, align 8
  %85 = call ptr @Cudd_bddAnd(ptr noundef %75, ptr noundef %83, ptr noundef %84)
  store ptr %85, ptr %12, align 8
  %86 = load ptr, ptr %12, align 8
  %87 = icmp eq ptr %86, null
  br i1 %87, label %88, label %93

88:                                               ; preds = %67
  %89 = load ptr, ptr %6, align 8
  %90 = load ptr, ptr %10, align 8
  call void @Cudd_RecursiveDeref(ptr noundef %89, ptr noundef %90)
  %91 = load ptr, ptr %6, align 8
  %92 = load ptr, ptr %11, align 8
  call void @Cudd_RecursiveDeref(ptr noundef %91, ptr noundef %92)
  store ptr null, ptr %5, align 8
  br label %143

93:                                               ; preds = %67
  %94 = load ptr, ptr %12, align 8
  %95 = ptrtoint ptr %94 to i64
  %96 = and i64 %95, -2
  %97 = inttoptr i64 %96 to ptr
  %98 = getelementptr inbounds %struct.DdNode, ptr %97, i32 0, i32 1
  %99 = load i32, ptr %98, align 4
  %100 = add i32 %99, 1
  store i32 %100, ptr %98, align 4
  %101 = load ptr, ptr %6, align 8
  %102 = load ptr, ptr %10, align 8
  call void @Cudd_RecursiveDeref(ptr noundef %101, ptr noundef %102)
  %103 = load ptr, ptr %6, align 8
  %104 = load ptr, ptr %8, align 8
  %105 = load i32, ptr %13, align 4
  %106 = sext i32 %105 to i64
  %107 = getelementptr inbounds ptr, ptr %104, i64 %106
  %108 = load ptr, ptr %107, align 8
  %109 = load ptr, ptr %11, align 8
  %110 = load ptr, ptr %12, align 8
  %111 = call ptr @Cudd_bddIte(ptr noundef %103, ptr noundef %108, ptr noundef %109, ptr noundef %110)
  store ptr %111, ptr %10, align 8
  %112 = load ptr, ptr %10, align 8
  %113 = icmp eq ptr %112, null
  br i1 %113, label %114, label %119

114:                                              ; preds = %93
  %115 = load ptr, ptr %6, align 8
  %116 = load ptr, ptr %11, align 8
  call void @Cudd_RecursiveDeref(ptr noundef %115, ptr noundef %116)
  %117 = load ptr, ptr %6, align 8
  %118 = load ptr, ptr %12, align 8
  call void @Cudd_RecursiveDeref(ptr noundef %117, ptr noundef %118)
  store ptr null, ptr %5, align 8
  br label %143

119:                                              ; preds = %93
  %120 = load ptr, ptr %10, align 8
  %121 = ptrtoint ptr %120 to i64
  %122 = and i64 %121, -2
  %123 = inttoptr i64 %122 to ptr
  %124 = getelementptr inbounds %struct.DdNode, ptr %123, i32 0, i32 1
  %125 = load i32, ptr %124, align 4
  %126 = add i32 %125, 1
  store i32 %126, ptr %124, align 4
  %127 = load ptr, ptr %6, align 8
  %128 = load ptr, ptr %11, align 8
  call void @Cudd_RecursiveDeref(ptr noundef %127, ptr noundef %128)
  %129 = load ptr, ptr %6, align 8
  %130 = load ptr, ptr %12, align 8
  call void @Cudd_RecursiveDeref(ptr noundef %129, ptr noundef %130)
  br label %131

131:                                              ; preds = %119
  %132 = load i32, ptr %13, align 4
  %133 = add nsw i32 %132, -1
  store i32 %133, ptr %13, align 4
  br label %50, !llvm.loop !8

134:                                              ; preds = %50
  %135 = load ptr, ptr %10, align 8
  %136 = ptrtoint ptr %135 to i64
  %137 = and i64 %136, -2
  %138 = inttoptr i64 %137 to ptr
  %139 = getelementptr inbounds %struct.DdNode, ptr %138, i32 0, i32 1
  %140 = load i32, ptr %139, align 4
  %141 = add i32 %140, -1
  store i32 %141, ptr %139, align 4
  %142 = load ptr, ptr %10, align 8
  store ptr %142, ptr %5, align 8
  br label %143

143:                                              ; preds = %134, %114, %88, %64, %39
  %144 = load ptr, ptr %5, align 8
  ret ptr %144
}