; Function Attrs: nounwind uwtable
define ptr @Cudd_Xeqy(ptr noundef %0, i32 noundef %1, ptr noundef readonly captures(none) %2, ptr noundef readonly captures(none) %3) local_unnamed_addr #0 {
  %5 = add nsw i32 %1, -1
  %6 = sext i32 %5 to i64
  %7 = getelementptr inbounds ptr, ptr %2, i64 %6
  %8 = load ptr, ptr %7, align 8
  %9 = getelementptr inbounds ptr, ptr %3, i64 %6
  %10 = load ptr, ptr %9, align 8
  %11 = ptrtoint ptr %10 to i64
  %12 = xor i64 %11, 1
  %13 = inttoptr i64 %12 to ptr
  %14 = tail call ptr @Cudd_bddIte(ptr noundef %0, ptr noundef %8, ptr noundef %10, ptr noundef %13) #6
  %15 = icmp eq ptr %14, null
  br i1 %15, label %68, label %16

16:                                               ; preds = %4
  %17 = ptrtoint ptr %14 to i64
  %18 = and i64 %17, -2
  %19 = inttoptr i64 %18 to ptr
  %20 = getelementptr inbounds nuw i8, ptr %19, i64 4
  %21 = load i32, ptr %20, align 4
  %22 = add i32 %21, 1
  store i32 %22, ptr %20, align 4
  %23 = icmp sgt i32 %1, 1
  br i1 %23, label %.lr.ph.preheader, label %._crit_edge

.lr.ph.preheader:                                 ; preds = %16
  %24 = add nsw i32 %1, -2
  %25 = zext nneg i32 %24 to i64
  br label %.lr.ph

.lr.ph:                                           ; preds = %.lr.ph.preheader, %57
  %indvars.iv = phi i64 [ %25, %.lr.ph.preheader ], [ %indvars.iv.next, %57 ]
  %.05062 = phi ptr [ %14, %.lr.ph.preheader ], [ %54, %57 ]
  %26 = getelementptr inbounds nuw ptr, ptr %3, i64 %indvars.iv
  %27 = load ptr, ptr %26, align 8
  %28 = tail call ptr @Cudd_bddAnd(ptr noundef %0, ptr noundef %27, ptr noundef nonnull %.05062) #6
  %29 = icmp eq ptr %28, null
  br i1 %29, label %30, label %31

30:                                               ; preds = %.lr.ph
  tail call void @Cudd_RecursiveDeref(ptr noundef %0, ptr noundef nonnull %.05062) #6
  br label %68

31:                                               ; preds = %.lr.ph
  %32 = ptrtoint ptr %28 to i64
  %33 = and i64 %32, -2
  %34 = inttoptr i64 %33 to ptr
  %35 = getelementptr inbounds nuw i8, ptr %34, i64 4
  %36 = load i32, ptr %35, align 4
  %37 = add i32 %36, 1
  store i32 %37, ptr %35, align 4
  %38 = load ptr, ptr %26, align 8
  %39 = ptrtoint ptr %38 to i64
  %40 = xor i64 %39, 1
  %41 = inttoptr i64 %40 to ptr
  %42 = tail call ptr @Cudd_bddAnd(ptr noundef %0, ptr noundef %41, ptr noundef nonnull %.05062) #6
  %43 = icmp eq ptr %42, null
  br i1 %43, label %44, label %45

44:                                               ; preds = %31
  tail call void @Cudd_RecursiveDeref(ptr noundef %0, ptr noundef nonnull %.05062) #6
  tail call void @Cudd_RecursiveDeref(ptr noundef %0, ptr noundef nonnull %28) #6
  br label %68

45:                                               ; preds = %31
  %46 = ptrtoint ptr %42 to i64
  %47 = and i64 %46, -2
  %48 = inttoptr i64 %47 to ptr
  %49 = getelementptr inbounds nuw i8, ptr %48, i64 4
  %50 = load i32, ptr %49, align 4
  %51 = add i32 %50, 1
  store i32 %51, ptr %49, align 4
  tail call void @Cudd_RecursiveDeref(ptr noundef %0, ptr noundef nonnull %.05062) #6
  %52 = getelementptr inbounds nuw ptr, ptr %2, i64 %indvars.iv
  %53 = load ptr, ptr %52, align 8
  %54 = tail call ptr @Cudd_bddIte(ptr noundef %0, ptr noundef %53, ptr noundef nonnull %28, ptr noundef nonnull %42) #6
  %55 = icmp eq ptr %54, null
  br i1 %55, label %56, label %57

56:                                               ; preds = %45
  tail call void @Cudd_RecursiveDeref(ptr noundef %0, ptr noundef nonnull %28) #6
  tail call void @Cudd_RecursiveDeref(ptr noundef %0, ptr noundef nonnull %42) #6
  br label %68

57:                                               ; preds = %45
  %58 = ptrtoint ptr %54 to i64
  %59 = and i64 %58, -2
  %60 = inttoptr i64 %59 to ptr
  %61 = getelementptr inbounds nuw i8, ptr %60, i64 4
  %62 = load i32, ptr %61, align 4
  %63 = add i32 %62, 1
  store i32 %63, ptr %61, align 4
  tail call void @Cudd_RecursiveDeref(ptr noundef %0, ptr noundef nonnull %28) #6
  tail call void @Cudd_RecursiveDeref(ptr noundef %0, ptr noundef nonnull %42) #6
  %indvars.iv.next = add nsw i64 %indvars.iv, -1
  %64 = icmp sgt i64 %indvars.iv, 0
  br i1 %64, label %.lr.ph, label %._crit_edge, !llvm.loop !8

._crit_edge:                                      ; preds = %57, %16
  %.pre-phi77 = phi ptr [ %19, %16 ], [ %60, %57 ]
  %.050.lcssa = phi ptr [ %14, %16 ], [ %54, %57 ]
  %65 = getelementptr inbounds nuw i8, ptr %.pre-phi77, i64 4
  %66 = load i32, ptr %65, align 4
  %67 = add i32 %66, -1
  store i32 %67, ptr %65, align 4
  br label %68

68:                                               ; preds = %4, %._crit_edge, %56, %44, %30
  %.049 = phi ptr [ null, %30 ], [ null, %44 ], [ null, %56 ], [ %.050.lcssa, %._crit_edge ], [ null, %4 ]
  ret ptr %.049
}